Certificate:
    Data:
        Version: 3 (0x2)
        Serial Number: 1 (0x1)
        Signature Algorithm: sha256WithRSAEncryption
        Issuer: C=TN, O=Projet-IoT, OU=PKI, CN=Projet-IoT Root CA
        Validity
            Not Before: Feb 27 20:50:42 2026 GMT
            Not After : Feb 27 20:50:42 2027 GMT
        Subject: C=TN, O=Projet-IoT, OU=Devices, CN=device001
        Subject Public Key Info:
            Public Key Algorithm: rsaEncryption
                Public-Key: (2048 bit)
                Modulus:
                    00:b8:4e:95:c7:a0:da:88:7c:a6:f6:cf:d0:83:ab:
                    4e:82:95:6b:d9:89:de:85:c3:f0:38:49:85:07:c4:
                    9b:53:93:80:5f:15:00:cd:b8:7c:6d:b5:cc:7a:a8:
                    62:4e:dc:17:0b:db:08:ab:e5:c6:81:bd:05:27:07:
                    14:7d:fc:8a:44:e1:71:52:06:f0:ab:cf:95:f1:71:
                    3b:b2:67:e1:4d:f4:51:54:14:97:6c:8a:f3:d6:90:
                    ec:0f:0e:36:76:b0:18:6e:6a:16:3c:83:8a:a6:f6:
                    da:21:5b:ff:ad:2c:88:fe:e3:be:10:7a:a3:2f:c8:
                    f7:67:05:7e:dc:72:6b:2d:29:5f:56:6e:f6:89:97:
                    08:e6:05:c4:fa:05:81:ed:86:aa:fa:16:8b:14:61:
                    9b:6b:e5:e4:92:76:4d:01:89:ab:b7:26:75:7b:66:
                    25:66:11:fc:86:6c:71:68:89:15:c7:15:fe:d3:7f:
                    7c:ed:98:55:1c:38:a1:05:fd:fe:1e:22:b1:3a:2e:
                    c3:c5:bb:7f:d3:8f:bf:4c:42:53:ca:3f:08:9e:05:
                    da:a9:b5:e1:4f:4e:15:55:26:d2:d1:5d:0f:1d:14:
                    fd:42:af:41:f1:35:86:f5:12:f8:d7:57:aa:eb:0a:
                    78:91:48:25:65:39:56:75:19:ac:59:58:32:e5:15:
                    c8:89
                Exponent: 65537 (0x10001)
        X509v3 extensions:
            X509v3 Basic Constraints: 
                CA:FALSE
            X509v3 Key Usage: 
                Digital Signature, Key Agreement
            X509v3 Extended Key Usage: 
                TLS Web Client Authentication
            X509v3 Subject Key Identifier: 
                90:6A:31:72:B3:42:6A:AA:02:70:2A:D8:6F:68:A6:49:07:6A:A8:21
            X509v3 Authority Key Identifier: 
                81:15:1E:69:0C:E9:E1:0B:AB:F2:92:49:59:21:F9:02:7B:A4:32:EC
    Signature Algorithm: sha256WithRSAEncryption
    Signature Value:
        80:3f:a2:bd:ad:fe:ee:fa:20:3e:33:b7:44:c4:47:2a:7e:59:
        d3:11:0d:37:82:9c:8f:c3:07:67:7c:35:12:c7:c8:98:48:d0:
        61:3e:0c:1e:d8:e1:d5:ea:91:86:88:bd:26:da:08:77:9d:b7:
        97:45:ca:72:76:61:55:cd:3f:50:26:27:1e:65:61:6a:09:04:
        4e:d3:40:a1:5b:52:ea:d1:94:6e:8d:fd:e7:fa:8f:8e:dc:3e:
        be:0f:49:b1:b2:ad:d3:a7:f3:00:e9:3a:d1:34:e6:6c:76:b2:
        41:5f:ac:5e:8e:b1:34:1b:e6:f6:0f:2f:07:86:75:84:68:1d:
        91:ba:40:df:64:7f:b3:7b:b1:cd:a8:35:24:91:a7:a4:ea:c5:
        29:d0:86:82:a3:03:6c:60:40:6a:62:e3:ee:d2:73:08:ba:03:
        f7:c5:cb:04:c6:52:38:78:4f:ec:0e:77:63:08:9d:55:8d:a6:
        ba:fa:af:f5:51:c7:03:7b:6c:3d:75:66:b1:89:fb:3d:05:cf:
        5b:4c:7f:de:e0:67:00:82:43:f8:cd:f6:d6:42:f7:5c:01:62:
        05:a2:09:a4:89:5e:dd:03:b3:d6:f4:28:90:cc:60:30:8a:e4:
        9f:17:c1:fe:74:6f:fd:f4:53:11:91:a5:58:79:10:ee:76:be:
        32:5d:93:89
-----BEGIN CERTIFICATE-----
MIIDfzCCAmegAwIBAgIBATANBgkqhkiG9w0BAQsFADBNMQswCQYDVQQGEwJUTjET
MBEGA1UECgwKUHJvamV0LUlvVDEMMAoGA1UECwwDUEtJMRswGQYDVQQDDBJQcm9q
ZXQtSW9UIFJvb3QgQ0EwHhcNMjYwMjI3MjA1MDQyWhcNMjcwMjI3MjA1MDQyWjBI
MQswCQYDVQQGEwJUTjETMBEGA1UECgwKUHJvamV0LUlvVDEQMA4GA1UECwwHRGV2
aWNlczESMBAGA1UEAwwJZGV2aWNlMDAxMIIBIjANBgkqhkiG9w0BAQEFAAOCAQ8A
MIIBCgKCAQEAuE6Vx6DaiHym9s/Qg6tOgpVr2YnehcPwOEmFB8SbU5OAXxUAzbh8
bbXMeqhiTtwXC9sIq+XGgb0FJwcUffyKROFxUgbwq8+V8XE7smfhTfRRVBSXbIrz
1pDsDw42drAYbmoWPIOKpvbaIVv/rSyI/uO+EHqjL8j3ZwV+3HJrLSlfVm72iZcI
5gXE+gWB7Yaq+haLFGGba+XkknZNAYmrtyZ1e2YlZhH8hmxxaIkVxxX+03987ZhV
HDihBf3+HiKxOi7Dxbt/04+/TEJTyj8IngXaqbXhT04VVSbS0V0PHRT9Qq9B8TWG
9RL411eq6wp4kUglZTlWdRmsWVgy5RXIiQIDAQABo28wbTAJBgNVHRMEAjAAMAsG
A1UdDwQEAwIDiDATBgNVHSUEDDAKBggrBgEFBQcDAjAdBgNVHQ4EFgQUkGoxcrNC
aqoCcCrYb2imSQdqqCEwHwYDVR0jBBgwFoAUgRUeaQzp4Qur8pJJWSH5AnukMuww
DQYJKoZIhvcNAQELBQADggEBAIA/or2t/u76ID4zt0TERyp+WdMRDTeCnI/DB2d8
NRLHyJhI0GE+DB7Y4dXqkYaIvSbaCHedt5dFynJ2YVXNP1AmJx5lYWoJBE7TQKFb
UurRlG6N/ef6j47cPr4PSbGyrdOn8wDpOtE05mx2skFfrF6OsTQb5vYPLweGdYRo
HZG6QN9kf7N7sc2oNSSRp6TqxSnQhoKjA2xgQGpi4+7Scwi6A/fFywTGUjh4T+wO
d2MInVWNprr6r/VRxwN7bD11ZrGJ+z0Fz1tMf97gZwCCQ/jN9tZC91wBYgWiCaSJ
Xt0Ds9b0KJDMYDCK5J8Xwf50b/30UxGRpVh5EO52vjJdk4k=
-----END CERTIFICATE-----
